; ModuleID = 'source-C-CXX/24/344.cpp'
source_filename = "source-C-CXX/24/344.cpp"
target datalayout = "e-m:e-p270:32:32-p271:32:32-p272:64:64-i64:64-f80:128-n8:16:32:64-S128"
target triple = "x86_64-pc-linux-gnu"

%"class.std::ios_base::Init" = type { i8 }
%"class.std::basic_istream" = type { i32 (...)**, i64, %"class.std::basic_ios" }
%"class.std::basic_ios" = type { %"class.std::ios_base", %"class.std::basic_ostream"*, i8, i8, %"class.std::basic_streambuf"*, %"class.std::ctype"*, %"class.std::num_put"*, %"class.std::num_get"* }
%"class.std::ios_base" = type { i32 (...)**, i64, i64, i32, i32, i32, %"struct.std::ios_base::_Callback_list"*, %"struct.std::ios_base::_Words", [8 x %"struct.std::ios_base::_Words"], i32, %"struct.std::ios_base::_Words"*, %"class.std::locale" }
%"struct.std::ios_base::_Callback_list" = type { %"struct.std::ios_base::_Callback_list"*, void (i32, %"class.std::ios_base"*, i32)*, i32, i32 }
%"struct.std::ios_base::_Words" = type { i8*, i64 }
%"class.std::locale" = type { %"class.std::locale::_Impl"* }
%"class.std::locale::_Impl" = type { i32, %"class.std::locale::facet"**, i64, %"class.std::locale::facet"**, i8** }
%"class.std::locale::facet" = type <{ i32 (...)**, i32, [4 x i8] }>
%"class.std::basic_ostream" = type { i32 (...)**, %"class.std::basic_ios" }
%"class.std::basic_streambuf" = type { i32 (...)**, i8*, i8*, i8*, i8*, i8*, i8*, %"class.std::locale" }
%"class.std::ctype" = type <{ %"class.std::locale::facet.base", [4 x i8], %struct.__locale_struct*, i8, [7 x i8], i32*, i32*, i16*, i8, [256 x i8], [256 x i8], i8, [6 x i8] }>
%"class.std::locale::facet.base" = type <{ i32 (...)**, i32 }>
%struct.__locale_struct = type { [13 x %struct.__locale_data*], i16*, i32*, i32*, [13 x i8*] }
%struct.__locale_data = type opaque
%"class.std::num_put" = type { %"class.std::locale::facet.base", [4 x i8] }
%"class.std::num_get" = type { %"class.std::locale::facet.base", [4 x i8] }

@_ZStL8__ioinit = internal global %"class.std::ios_base::Init" zeroinitializer, align 1
@__dso_handle = external hidden global i8
@_ZSt3cin = external global %"class.std::basic_istream", align 8
@_ZSt4cout = external global %"class.std::basic_ostream", align 8
@llvm.global_ctors = appending global [1 x { i32, void ()*, i8* }] [{ i32, void ()*, i8* } { i32 65535, void ()* @_GLOBAL__sub_I_344.cpp, i8* null }]

declare void @_ZNSt8ios_base4InitC1Ev(%"class.std::ios_base::Init"* nonnull align 1 dereferenceable(1)) unnamed_addr #0

; Function Attrs: nounwind
declare void @_ZNSt8ios_base4InitD1Ev(%"class.std::ios_base::Init"* nonnull align 1 dereferenceable(1)) unnamed_addr #1

; Function Attrs: nofree nounwind
declare i32 @__cxa_atexit(void (i8*)*, i8*, i8*) local_unnamed_addr #2

; Function Attrs: mustprogress norecurse sspstrong uwtable
define dso_local i32 @main() local_unnamed_addr #3 {
  %1 = alloca i32, align 4
  %2 = alloca [100000 x i32], align 16
  %3 = bitcast i32* %1 to i8*
  call void @llvm.lifetime.start.p0i8(i64 4, i8* nonnull %3) #8
  %4 = bitcast [100000 x i32]* %2 to i8*
  call void @llvm.lifetime.start.p0i8(i64 400000, i8* nonnull %4) #8
  call void @llvm.memset.p0i8.i64(i8* noundef nonnull align 16 dereferenceable(400000) %4, i8 0, i64 400000, i1 false)
  %5 = getelementptr inbounds [100000 x i32], [100000 x i32]* %2, i64 0, i64 0
  store i32 1, i32* %5, align 16
  %6 = call nonnull align 8 dereferenceable(16) %"class.std::basic_istream"* @_ZNSirsERi(%"class.std::basic_istream"* nonnull align 8 dereferenceable(16) @_ZSt3cin, i32* nonnull align 4 dereferenceable(4) %1)
  %7 = load i32, i32* %1, align 4, !tbaa !5
  %8 = icmp sgt i32 %7, 0
  br i1 %8, label %9, label %25

9:                                                ; preds = %0, %22
  %10 = phi i32 [ %23, %22 ], [ 0, %0 ]
  br label %11

11:                                               ; preds = %9, %11
  %12 = phi i64 [ 0, %9 ], [ %20, %11 ]
  %13 = phi i32 [ 0, %9 ], [ %18, %11 ]
  %14 = getelementptr inbounds [100000 x i32], [100000 x i32]* %2, i64 0, i64 %12
  %15 = load i32, i32* %14, align 4, !tbaa !5
  %16 = shl nsw i32 %15, 1
  %17 = add nsw i32 %16, %13
  %18 = sdiv i32 %17, 10
  %19 = srem i32 %17, 10
  store i32 %19, i32* %14, align 4, !tbaa !5
  %20 = add nuw nsw i64 %12, 1
  %21 = icmp eq i64 %20, 100000
  br i1 %21, label %22, label %11, !llvm.loop !9

22:                                               ; preds = %11
  %23 = add nuw nsw i32 %10, 1
  %24 = icmp eq i32 %23, %7
  br i1 %24, label %25, label %9, !llvm.loop !11

25:                                               ; preds = %22, %0
  br label %26

26:                                               ; preds = %25, %26
  %27 = phi i64 [ %31, %26 ], [ 99999, %25 ]
  %28 = getelementptr inbounds [100000 x i32], [100000 x i32]* %2, i64 0, i64 %27
  %29 = load i32, i32* %28, align 4, !tbaa !5
  %30 = icmp eq i32 %29, 0
  %31 = add i64 %27, -1
  br i1 %30, label %26, label %32, !llvm.loop !12

32:                                               ; preds = %26
  %33 = trunc i64 %27 to i32
  %34 = icmp sgt i32 %33, -1
  br i1 %34, label %35, label %44

35:                                               ; preds = %32
  %36 = and i64 %27, 4294967295
  br label %37

37:                                               ; preds = %35, %37
  %38 = phi i64 [ %36, %35 ], [ %43, %37 ]
  %39 = getelementptr inbounds [100000 x i32], [100000 x i32]* %2, i64 0, i64 %38
  %40 = load i32, i32* %39, align 4, !tbaa !5
  %41 = call nonnull align 8 dereferenceable(8) %"class.std::basic_ostream"* @_ZNSolsEi(%"class.std::basic_ostream"* nonnull align 8 dereferenceable(8) @_ZSt4cout, i32 %40)
  %42 = icmp sgt i64 %38, 0
  %43 = add nsw i64 %38, -1
  br i1 %42, label %37, label %44, !llvm.loop !13

44:                                               ; preds = %37, %32
  %45 = load i8*, i8** bitcast (%"class.std::basic_ostream"* @_ZSt4cout to i8**), align 8, !tbaa !14
  %46 = getelementptr i8, i8* %45, i64 -24
  %47 = bitcast i8* %46 to i64*
  %48 = load i64, i64* %47, align 8
  %49 = add nsw i64 %48, 240
  %50 = getelementptr inbounds i8, i8* bitcast (%"class.std::basic_ostream"* @_ZSt4cout to i8*), i64 %49
  %51 = bitcast i8* %50 to %"class.std::ctype"**
  %52 = load %"class.std::ctype"*, %"class.std::ctype"** %51, align 8, !tbaa !16
  %53 = icmp eq %"class.std::ctype"* %52, null
  br i1 %53, label %54, label %55

54:                                               ; preds = %44
  call void @_ZSt16__throw_bad_castv() #9
  unreachable

55:                                               ; preds = %44
  %56 = getelementptr inbounds %"class.std::ctype", %"class.std::ctype"* %52, i64 0, i32 8
  %57 = load i8, i8* %56, align 8, !tbaa !20
  %58 = icmp eq i8 %57, 0
  br i1 %58, label %62, label %59

59:                                               ; preds = %55
  %60 = getelementptr inbounds %"class.std::ctype", %"class.std::ctype"* %52, i64 0, i32 9, i64 10
  %61 = load i8, i8* %60, align 1, !tbaa !22
  br label %68

62:                                               ; preds = %55
  call void @_ZNKSt5ctypeIcE13_M_widen_initEv(%"class.std::ctype"* nonnull align 8 dereferenceable(570) %52)
  %63 = bitcast %"class.std::ctype"* %52 to i8 (%"class.std::ctype"*, i8)***
  %64 = load i8 (%"class.std::ctype"*, i8)**, i8 (%"class.std::ctype"*, i8)*** %63, align 8, !tbaa !14
  %65 = getelementptr inbounds i8 (%"class.std::ctype"*, i8)*, i8 (%"class.std::ctype"*, i8)** %64, i64 6
  %66 = load i8 (%"class.std::ctype"*, i8)*, i8 (%"class.std::ctype"*, i8)** %65, align 8
  %67 = call signext i8 %66(%"class.std::ctype"* nonnull align 8 dereferenceable(570) %52, i8 signext 10)
  br label %68

68:                                               ; preds = %59, %62
  %69 = phi i8 [ %61, %59 ], [ %67, %62 ]
  %70 = call nonnull align 8 dereferenceable(8) %"class.std::basic_ostream"* @_ZNSo3putEc(%"class.std::basic_ostream"* nonnull align 8 dereferenceable(8) @_ZSt4cout, i8 signext %69)
  %71 = call nonnull align 8 dereferenceable(8) %"class.std::basic_ostream"* @_ZNSo5flushEv(%"class.std::basic_ostream"* nonnull align 8 dereferenceable(8) %70)
  call void @llvm.lifetime.end.p0i8(i64 400000, i8* nonnull %4) #8
  call void @llvm.lifetime.end.p0i8(i64 4, i8* nonnull %3) #8
  ret i32 0
}

; Function Attrs: argmemonly mustprogress nofree nosync nounwind willreturn
declare void @llvm.lifetime.start.p0i8(i64 immarg, i8* nocapture) #4

; Function Attrs: argmemonly mustprogress nofree nounwind willreturn writeonly
declare void @llvm.memset.p0i8.i64(i8* nocapture writeonly, i8, i64, i1 immarg) #5

declare nonnull align 8 dereferenceable(16) %"class.std::basic_istream"* @_ZNSirsERi(%"class.std::basic_istream"* nonnull align 8 dereferenceable(16), i32* nonnull align 4 dereferenceable(4)) local_unnamed_addr #0

declare nonnull align 8 dereferenceable(8) %"class.std::basic_ostream"* @_ZNSolsEi(%"class.std::basic_ostream"* nonnull align 8 dereferenceable(8), i32) local_unnamed_addr #0

; Function Attrs: argmemonly mustprogress nofree nosync nounwind willreturn
declare void @llvm.lifetime.end.p0i8(i64 immarg, i8* nocapture) #4

declare nonnull align 8 dereferenceable(8) %"class.std::basic_ostream"* @_ZNSo3putEc(%"class.std::basic_ostream"* nonnull align 8 dereferenceable(8), i8 signext) local_unnamed_addr #0

declare nonnull align 8 dereferenceable(8) %"class.std::basic_ostream"* @_ZNSo5flushEv(%"class.std::basic_ostream"* nonnull align 8 dereferenceable(8)) local_unnamed_addr #0

; Function Attrs: noreturn
declare void @_ZSt16__throw_bad_castv() local_unnamed_addr #6

declare void @_ZNKSt5ctypeIcE13_M_widen_initEv(%"class.std::ctype"* nonnull align 8 dereferenceable(570)) local_unnamed_addr #0

; Function Attrs: sspstrong uwtable
define internal void @_GLOBAL__sub_I_344.cpp() #7 section ".text.startup" {
  tail call void @_ZNSt8ios_base4InitC1Ev(%"class.std::ios_base::Init"* nonnull align 1 dereferenceable(1) @_ZStL8__ioinit)
  %1 = tail call i32 @__cxa_atexit(void (i8*)* bitcast (void (%"class.std::ios_base::Init"*)* @_ZNSt8ios_base4InitD1Ev to void (i8*)*), i8* getelementptr inbounds (%"class.std::ios_base::Init", %"class.std::ios_base::Init"* @_ZStL8__ioinit, i64 0, i32 0), i8* nonnull @__dso_handle) #8
  ret void
}


!llvm.module.flags = !{!0, !1, !2, !3}
!llvm.ident = !{!4}

!0 = !{i32 1, !"wchar_size", i32 4}
!1 = !{i32 7, !"PIC Level", i32 2}
!2 = !{i32 7, !"PIE Level", i32 2}
!3 = !{i32 7, !"uwtable", i32 1}
!4 = !{!"clang version 13.0.0"}
!5 = !{!6, !6, i64 0}
!6 = !{!"int", !7, i64 0}
!7 = !{!"omnipotent char", !8, i64 0}
!8 = !{!"Simple C++ TBAA"}
!9 = distinct !{!9, !10}
!10 = !{!"llvm.loop.mustprogress"}
!11 = distinct !{!11, !10}
!12 = distinct !{!12, !10}
!13 = distinct !{!13, !10}
!14 = !{!15, !15, i64 0}
!15 = !{!"vtable pointer", !8, i64 0}
!16 = !{!17, !18, i64 240}
!17 = !{!"_ZTSSt9basic_iosIcSt11char_traitsIcEE", !18, i64 216, !7, i64 224, !19, i64 225, !18, i64 232, !18, i64 240, !18, i64 248, !18, i64 256}
!18 = !{!"any pointer", !7, i64 0}
!19 = !{!"bool", !7, i64 0}
!20 = !{!21, !7, i64 56}
!21 = !{!"_ZTSSt5ctypeIcE", !18, i64 16, !19, i64 24, !18, i64 32, !18, i64 40, !18, i64 48, !7, i64 56, !7, i64 57, !7, i64 313, !7, i64 569}
!22 = !{!7, !7, i64 0}
